target datalayout = "e-m:e-p270:32:32-p271:32:32-p272:64:64-i64:64-i128:128-f80:128-n8:16:32:64-S128"
target triple = "x86_64-pc-linux-gnu"

%union.pthread_mutex_t = type { %struct.__pthread_mutex_s }
%struct.__pthread_mutex_s = type { i32, i32, i32, i32, i32, i16, i16, %struct.__pthread_internal_list }
%struct.__pthread_internal_list = type { ptr, ptr }
%struct.slurmdbd_conn_t = type { ptr, ptr, %union.pthread_mutex_t, ptr, ptr }
%struct.persist_conn_t = type { ptr, i32, i32, i8, ptr, ptr, ptr, i64, i16, i32, i16, i8, i32, i32, ptr, i16, ptr, i64, i32, ptr, %struct.slurm_trigger_callbacks_t, i16 }
%struct.slurm_trigger_callbacks_t = type { ptr, ptr, ptr, ptr, ptr }
%struct.slurmdbd_conf_t = type { ptr, ptr, i16, ptr, ptr, ptr, i16, i16, ptr, i32, ptr, i32, ptr, i16, ptr, i32, i32, i32, i32, i32, i32, i32, ptr, i16, i16, i16 }

@slurmdbd_conf = external global ptr, align 8
@.str.7 = private unnamed_addr constant [29 x i8] c"%s: pthread_mutex_lock(): %m\00", align 1
@.str.8 = private unnamed_addr constant [11 x i8] c"proc_req.c\00", align 1
@.str.9 = private unnamed_addr constant [31 x i8] c"%s: pthread_mutex_unlock(): %m\00", align 1
@.str.54 = private unnamed_addr constant [58 x i8] c"%s: trying to register a cluster (%s) with no remote port\00", align 1
@__func__._add_registered_cluster = private unnamed_addr constant [24 x i8] c"_add_registered_cluster\00", align 1
@registered_lock = external global %union.pthread_mutex_t, align 8
@registered_clusters = external global ptr, align 8
@.str.55 = private unnamed_addr constant [134 x i8] c"A new registration for cluster %s CONN:%d just came in, but I am already talking to that cluster (CONN:%d), closing other connection.\00", align 1
@.str.56 = private unnamed_addr constant [29 x i8] c"%s: pthread_mutex_init(): %m\00", align 1
@shutdown_time = external global i64, align 8

; Function Attrs: nounwind uwtable
define internal void @_add_registered_cluster(ptr noundef %0) #0 {
  %2 = alloca ptr, align 8
  %3 = alloca ptr, align 8
  %4 = alloca ptr, align 8
  %5 = alloca i32, align 4
  %6 = alloca i32, align 4
  %7 = alloca i32, align 4
  %8 = alloca i32, align 4
  %9 = alloca i32, align 4
  %10 = alloca i32, align 4
  store ptr %0, ptr %2, align 8
  call void @llvm.lifetime.start.p0(i64 8, ptr %3) #8
  call void @llvm.lifetime.start.p0(i64 8, ptr %4) #8
  %11 = load ptr, ptr %2, align 8
  %12 = getelementptr inbounds nuw %struct.slurmdbd_conn_t, ptr %11, i32 0, i32 0
  %13 = load ptr, ptr %12, align 8
  %14 = getelementptr inbounds nuw %struct.persist_conn_t, ptr %13, i32 0, i32 15
  %15 = load i16, ptr %14, align 8
  %16 = icmp ne i16 %15, 0
  br i1 %16, label %24, label %17

17:                                               ; preds = %1
  %18 = load ptr, ptr %2, align 8
  %19 = getelementptr inbounds nuw %struct.slurmdbd_conn_t, ptr %18, i32 0, i32 0
  %20 = load ptr, ptr %19, align 8
  %21 = getelementptr inbounds nuw %struct.persist_conn_t, ptr %20, i32 0, i32 6
  %22 = load ptr, ptr %21, align 8
  %23 = call i32 (ptr, ...) @error(ptr noundef @.str.54, ptr noundef @__func__._add_registered_cluster, ptr noundef %22)
  store i32 1, ptr %5, align 4
  br label %225

24:                                               ; preds = %1
  br label %25

25:                                               ; preds = %24
  call void @llvm.lifetime.start.p0(i64 4, ptr %6) #8
  %26 = call i32 @pthread_mutex_lock(ptr noundef @registered_lock) #8
  store i32 %26, ptr %6, align 4
  %27 = load i32, ptr %6, align 4
  %28 = icmp ne i32 %27, 0
  br i1 %28, label %29, label %32

29:                                               ; preds = %25
  %30 = load i32, ptr %6, align 4
  %31 = call ptr @__errno_location() #10
  store i32 %30, ptr %31, align 4
  call void (ptr, ...) @fatal_abort(ptr noundef @.str.7, ptr noundef @__func__._add_registered_cluster) #9
  unreachable

32:                                               ; preds = %25
  call void @llvm.lifetime.end.p0(i64 4, ptr %6) #8
  br label %33

33:                                               ; preds = %32
  br label %34

34:                                               ; preds = %33
  %35 = load ptr, ptr @registered_clusters, align 8
  %36 = call ptr @list_iterator_create(ptr noundef %35)
  store ptr %36, ptr %3, align 8
  br label %37

37:                                               ; preds = %94, %34
  %38 = load ptr, ptr %3, align 8
  %39 = call ptr @list_next(ptr noundef %38)
  store ptr %39, ptr %4, align 8
  %40 = icmp ne ptr %39, null
  br i1 %40, label %41, label %95

41:                                               ; preds = %37
  %42 = load ptr, ptr %2, align 8
  %43 = load ptr, ptr %4, align 8
  %44 = icmp eq ptr %42, %43
  br i1 %44, label %45, label %46

45:                                               ; preds = %41
  br label %95

46:                                               ; preds = %41
  %47 = load ptr, ptr %2, align 8
  %48 = getelementptr inbounds nuw %struct.slurmdbd_conn_t, ptr %47, i32 0, i32 0
  %49 = load ptr, ptr %48, align 8
  %50 = getelementptr inbounds nuw %struct.persist_conn_t, ptr %49, i32 0, i32 6
  %51 = load ptr, ptr %50, align 8
  %52 = load ptr, ptr %4, align 8
  %53 = getelementptr inbounds nuw %struct.slurmdbd_conn_t, ptr %52, i32 0, i32 0
  %54 = load ptr, ptr %53, align 8
  %55 = getelementptr inbounds nuw %struct.persist_conn_t, ptr %54, i32 0, i32 6
  %56 = load ptr, ptr %55, align 8
  %57 = call i32 @xstrcmp(ptr noundef %51, ptr noundef %56)
  %58 = icmp ne i32 %57, 0
  br i1 %58, label %94, label %59

59:                                               ; preds = %46
  %60 = load ptr, ptr %2, align 8
  %61 = getelementptr inbounds nuw %struct.slurmdbd_conn_t, ptr %60, i32 0, i32 0
  %62 = load ptr, ptr %61, align 8
  %63 = getelementptr inbounds nuw %struct.persist_conn_t, ptr %62, i32 0, i32 9
  %64 = load i32, ptr %63, align 4
  %65 = load ptr, ptr %4, align 8
  %66 = getelementptr inbounds nuw %struct.slurmdbd_conn_t, ptr %65, i32 0, i32 0
  %67 = load ptr, ptr %66, align 8
  %68 = getelementptr inbounds nuw %struct.persist_conn_t, ptr %67, i32 0, i32 9
  %69 = load i32, ptr %68, align 4
  %70 = icmp ne i32 %64, %69
  br i1 %70, label %71, label %94

71:                                               ; preds = %59
  %72 = load ptr, ptr %2, align 8
  %73 = getelementptr inbounds nuw %struct.slurmdbd_conn_t, ptr %72, i32 0, i32 0
  %74 = load ptr, ptr %73, align 8
  %75 = getelementptr inbounds nuw %struct.persist_conn_t, ptr %74, i32 0, i32 6
  %76 = load ptr, ptr %75, align 8
  %77 = load ptr, ptr %2, align 8
  %78 = getelementptr inbounds nuw %struct.slurmdbd_conn_t, ptr %77, i32 0, i32 0
  %79 = load ptr, ptr %78, align 8
  %80 = getelementptr inbounds nuw %struct.persist_conn_t, ptr %79, i32 0, i32 9
  %81 = load i32, ptr %80, align 4
  %82 = load ptr, ptr %4, align 8
  %83 = getelementptr inbounds nuw %struct.slurmdbd_conn_t, ptr %82, i32 0, i32 0
  %84 = load ptr, ptr %83, align 8
  %85 = getelementptr inbounds nuw %struct.persist_conn_t, ptr %84, i32 0, i32 9
  %86 = load i32, ptr %85, align 4
  %87 = call i32 (ptr, ...) @error(ptr noundef @.str.55, ptr noundef %76, i32 noundef %81, i32 noundef %86)
  %88 = load ptr, ptr %4, align 8
  %89 = getelementptr inbounds nuw %struct.slurmdbd_conn_t, ptr %88, i32 0, i32 0
  %90 = load ptr, ptr %89, align 8
  %91 = getelementptr inbounds nuw %struct.persist_conn_t, ptr %90, i32 0, i32 15
  store i16 0, ptr %91, align 8
  %92 = load ptr, ptr %3, align 8
  %93 = call i32 @list_delete_item(ptr noundef %92)
  br label %94

94:                                               ; preds = %71, %59, %46
  br label %37, !llvm.loop !16

95:                                               ; preds = %45, %37
  %96 = load ptr, ptr %3, align 8
  call void @list_iterator_destroy(ptr noundef %96)
  %97 = load ptr, ptr %4, align 8
  %98 = icmp ne ptr %97, null
  br i1 %98, label %214, label %99

99:                                               ; preds = %95
  br label %100

100:                                              ; preds = %99
  call void @llvm.lifetime.start.p0(i64 4, ptr %7) #8
  %101 = load ptr, ptr %2, align 8
  %102 = getelementptr inbounds nuw %struct.slurmdbd_conn_t, ptr %101, i32 0, i32 2
  %103 = call i32 @pthread_mutex_init(ptr noundef %102, ptr noundef null) #8
  store i32 %103, ptr %7, align 4
  %104 = load i32, ptr %7, align 4
  %105 = icmp ne i32 %104, 0
  br i1 %105, label %106, label %109

106:                                              ; preds = %100
  %107 = load i32, ptr %7, align 4
  %108 = call ptr @__errno_location() #10
  store i32 %107, ptr %108, align 4
  call void (ptr, ...) @fatal_abort(ptr noundef @.str.56, ptr noundef @__func__._add_registered_cluster) #9
  unreachable

109:                                              ; preds = %100
  call void @llvm.lifetime.end.p0(i64 4, ptr %7) #8
  br label %110

110:                                              ; preds = %109
  br label %111

111:                                              ; preds = %110
  br label %112

112:                                              ; preds = %111
  call void @llvm.lifetime.start.p0(i64 4, ptr %8) #8
  %113 = load ptr, ptr %2, align 8
  %114 = getelementptr inbounds nuw %struct.slurmdbd_conn_t, ptr %113, i32 0, i32 2
  %115 = call i32 @pthread_mutex_lock(ptr noundef %114) #8
  store i32 %115, ptr %8, align 4
  %116 = load i32, ptr %8, align 4
  %117 = icmp ne i32 %116, 0
  br i1 %117, label %118, label %121

118:                                              ; preds = %112
  %119 = load i32, ptr %8, align 4
  %120 = call ptr @__errno_location() #10
  store i32 %119, ptr %120, align 4
  call void (ptr, ...) @fatal_abort(ptr noundef @.str.7, ptr noundef @__func__._add_registered_cluster) #9
  unreachable

121:                                              ; preds = %112
  call void @llvm.lifetime.end.p0(i64 4, ptr %8) #8
  br label %122

122:                                              ; preds = %121
  br label %123

123:                                              ; preds = %122
  %124 = call ptr @slurm_xcalloc(i64 noundef 1, i64 noundef 176, i1 noundef zeroext true, i1 noundef zeroext false, ptr noundef @.str.8, i32 noundef 206, ptr noundef @__func__._add_registered_cluster)
  %125 = load ptr, ptr %2, align 8
  %126 = getelementptr inbounds nuw %struct.slurmdbd_conn_t, ptr %125, i32 0, i32 1
  store ptr %124, ptr %126, align 8
  %127 = load ptr, ptr %2, align 8
  %128 = getelementptr inbounds nuw %struct.slurmdbd_conn_t, ptr %127, i32 0, i32 0
  %129 = load ptr, ptr %128, align 8
  %130 = getelementptr inbounds nuw %struct.persist_conn_t, ptr %129, i32 0, i32 6
  %131 = load ptr, ptr %130, align 8
  %132 = call ptr @xstrdup(ptr noundef %131)
  %133 = load ptr, ptr %2, align 8
  %134 = getelementptr inbounds nuw %struct.slurmdbd_conn_t, ptr %133, i32 0, i32 1
  %135 = load ptr, ptr %134, align 8
  %136 = getelementptr inbounds nuw %struct.persist_conn_t, ptr %135, i32 0, i32 6
  store ptr %132, ptr %136, align 8
  %137 = load ptr, ptr %2, align 8
  %138 = getelementptr inbounds nuw %struct.slurmdbd_conn_t, ptr %137, i32 0, i32 1
  %139 = load ptr, ptr %138, align 8
  %140 = getelementptr inbounds nuw %struct.persist_conn_t, ptr %139, i32 0, i32 9
  store i32 -2, ptr %140, align 4
  %141 = load ptr, ptr %2, align 8
  %142 = getelementptr inbounds nuw %struct.slurmdbd_conn_t, ptr %141, i32 0, i32 1
  %143 = load ptr, ptr %142, align 8
  %144 = getelementptr inbounds nuw %struct.persist_conn_t, ptr %143, i32 0, i32 12
  store i32 5, ptr %144, align 4
  %145 = load ptr, ptr @slurmdbd_conf, align 8
  %146 = getelementptr inbounds nuw %struct.slurmdbd_conf_t, ptr %145, i32 0, i32 6
  %147 = load i16, ptr %146, align 8
  %148 = load ptr, ptr %2, align 8
  %149 = getelementptr inbounds nuw %struct.slurmdbd_conn_t, ptr %148, i32 0, i32 1
  %150 = load ptr, ptr %149, align 8
  %151 = getelementptr inbounds nuw %struct.persist_conn_t, ptr %150, i32 0, i32 8
  store i16 %147, ptr %151, align 8
  %152 = load ptr, ptr %2, align 8
  %153 = getelementptr inbounds nuw %struct.slurmdbd_conn_t, ptr %152, i32 0, i32 0
  %154 = load ptr, ptr %153, align 8
  %155 = getelementptr inbounds nuw %struct.persist_conn_t, ptr %154, i32 0, i32 14
  %156 = load ptr, ptr %155, align 8
  %157 = call ptr @xstrdup(ptr noundef %156)
  %158 = load ptr, ptr %2, align 8
  %159 = getelementptr inbounds nuw %struct.slurmdbd_conn_t, ptr %158, i32 0, i32 1
  %160 = load ptr, ptr %159, align 8
  %161 = getelementptr inbounds nuw %struct.persist_conn_t, ptr %160, i32 0, i32 14
  store ptr %157, ptr %161, align 8
  %162 = load ptr, ptr %2, align 8
  %163 = getelementptr inbounds nuw %struct.slurmdbd_conn_t, ptr %162, i32 0, i32 0
  %164 = load ptr, ptr %163, align 8
  %165 = getelementptr inbounds nuw %struct.persist_conn_t, ptr %164, i32 0, i32 15
  %166 = load i16, ptr %165, align 8
  %167 = load ptr, ptr %2, align 8
  %168 = getelementptr inbounds nuw %struct.slurmdbd_conn_t, ptr %167, i32 0, i32 1
  %169 = load ptr, ptr %168, align 8
  %170 = getelementptr inbounds nuw %struct.persist_conn_t, ptr %169, i32 0, i32 15
  store i16 %166, ptr %170, align 8
  %171 = load ptr, ptr %2, align 8
  %172 = getelementptr inbounds nuw %struct.slurmdbd_conn_t, ptr %171, i32 0, i32 0
  %173 = load ptr, ptr %172, align 8
  %174 = getelementptr inbounds nuw %struct.persist_conn_t, ptr %173, i32 0, i32 21
  %175 = load i16, ptr %174, align 8
  %176 = load ptr, ptr %2, align 8
  %177 = getelementptr inbounds nuw %struct.slurmdbd_conn_t, ptr %176, i32 0, i32 1
  %178 = load ptr, ptr %177, align 8
  %179 = getelementptr inbounds nuw %struct.persist_conn_t, ptr %178, i32 0, i32 21
  store i16 %175, ptr %179, align 8
  %180 = load ptr, ptr %2, align 8
  %181 = getelementptr inbounds nuw %struct.slurmdbd_conn_t, ptr %180, i32 0, i32 1
  %182 = load ptr, ptr %181, align 8
  %183 = getelementptr inbounds nuw %struct.persist_conn_t, ptr %182, i32 0, i32 16
  store ptr @shutdown_time, ptr %183, align 8
  %184 = load ptr, ptr %2, align 8
  %185 = getelementptr inbounds nuw %struct.slurmdbd_conn_t, ptr %184, i32 0, i32 1
  %186 = load ptr, ptr %185, align 8
  %187 = getelementptr inbounds nuw %struct.persist_conn_t, ptr %186, i32 0, i32 18
  store i32 0, ptr %187, align 8
  %188 = load ptr, ptr %2, align 8
  %189 = getelementptr inbounds nuw %struct.slurmdbd_conn_t, ptr %188, i32 0, i32 1
  %190 = load ptr, ptr %189, align 8
  %191 = getelementptr inbounds nuw %struct.persist_conn_t, ptr %190, i32 0, i32 13
  store i32 -1, ptr %191, align 8
  %192 = load ptr, ptr %2, align 8
  %193 = getelementptr inbounds nuw %struct.slurmdbd_conn_t, ptr %192, i32 0, i32 1
  %194 = load ptr, ptr %193, align 8
  %195 = getelementptr inbounds nuw %struct.persist_conn_t, ptr %194, i32 0, i32 10
  %196 = load i16, ptr %195, align 8
  %197 = zext i16 %196 to i64
  %198 = or i64 %197, 2
  %199 = trunc i64 %198 to i16
  store i16 %199, ptr %195, align 8
  br label %200

200:                                              ; preds = %123
  call void @llvm.lifetime.start.p0(i64 4, ptr %9) #8
  %201 = load ptr, ptr %2, align 8
  %202 = getelementptr inbounds nuw %struct.slurmdbd_conn_t, ptr %201, i32 0, i32 2
  %203 = call i32 @pthread_mutex_unlock(ptr noundef %202) #8
  store i32 %203, ptr %9, align 4
  %204 = load i32, ptr %9, align 4
  %205 = icmp ne i32 %204, 0
  br i1 %205, label %206, label %209

206:                                              ; preds = %200
  %207 = load i32, ptr %9, align 4
  %208 = call ptr @__errno_location() #10
  store i32 %207, ptr %208, align 4
  call void (ptr, ...) @fatal_abort(ptr noundef @.str.9, ptr noundef @__func__._add_registered_cluster) #9
  unreachable

209:                                              ; preds = %200
  call void @llvm.lifetime.end.p0(i64 4, ptr %9) #8
  br label %210

210:                                              ; preds = %209
  br label %211

211:                                              ; preds = %210
  %212 = load ptr, ptr @registered_clusters, align 8
  %213 = load ptr, ptr %2, align 8
  call void @list_append(ptr noundef %212, ptr noundef %213)
  br label %214

214:                                              ; preds = %211, %95
  br label %215

215:                                              ; preds = %214
  call void @llvm.lifetime.start.p0(i64 4, ptr %10) #8
  %216 = call i32 @pthread_mutex_unlock(ptr noundef @registered_lock) #8
  store i32 %216, ptr %10, align 4
  %217 = load i32, ptr %10, align 4
  %218 = icmp ne i32 %217, 0
  br i1 %218, label %219, label %222

219:                                              ; preds = %215
  %220 = load i32, ptr %10, align 4
  %221 = call ptr @__errno_location() #10
  store i32 %220, ptr %221, align 4
  call void (ptr, ...) @fatal_abort(ptr noundef @.str.9, ptr noundef @__func__._add_registered_cluster) #9
  unreachable

222:                                              ; preds = %215
  call void @llvm.lifetime.end.p0(i64 4, ptr %10) #8
  br label %223

223:                                              ; preds = %222
  br label %224

224:                                              ; preds = %223
  store i32 0, ptr %5, align 4
  br label %225

225:                                              ; preds = %224, %17
  call void @llvm.lifetime.end.p0(i64 8, ptr %4) #8
  call void @llvm.lifetime.end.p0(i64 8, ptr %3) #8
  %226 = load i32, ptr %5, align 4
  switch i32 %226, label %228 [
    i32 0, label %227
    i32 1, label %227
  ]

227:                                              ; preds = %225, %225
  ret void

228:                                              ; preds = %225
  unreachable
}