; Function Attrs: nounwind uwtable
define internal fastcc void @_add_registered_cluster(ptr noundef %0) unnamed_addr #0 {
  %2 = load ptr, ptr %0, align 8
  %3 = getelementptr inbounds nuw i8, ptr %2, i64 88
  %4 = load i16, ptr %3, align 8
  %.not = icmp eq i16 %4, 0
  br i1 %.not, label %5, label %9

5:                                                ; preds = %1
  %6 = getelementptr inbounds nuw i8, ptr %2, i64 40
  %7 = load ptr, ptr %6, align 8
  %8 = tail call i32 (ptr, ...) @error(ptr noundef nonnull @.str.54, ptr noundef nonnull @__func__._add_registered_cluster, ptr noundef %7) #10
  br label %105

9:                                                ; preds = %1
  %10 = tail call i32 @pthread_mutex_lock(ptr noundef nonnull @registered_lock) #10
  %.not53 = icmp eq i32 %10, 0
  br i1 %.not53, label %13, label %11

11:                                               ; preds = %9
  %12 = tail call ptr @__errno_location() #12
  store i32 %10, ptr %12, align 4
  tail call void (ptr, ...) @fatal_abort(ptr noundef nonnull @.str.7, ptr noundef nonnull @__func__._add_registered_cluster) #11
  unreachable

13:                                               ; preds = %9
  %14 = load ptr, ptr @registered_clusters, align 8
  %15 = tail call ptr @list_iterator_create(ptr noundef %14) #10
  %16 = tail call ptr @list_next(ptr noundef %15) #10
  %.not5461 = icmp eq ptr %16, null
  %17 = icmp eq ptr %0, %16
  %or.cond62 = or i1 %.not5461, %17
  br i1 %or.cond62, label %._crit_edge, label %.lr.ph

.lr.ph:                                           ; preds = %13, %40
  %18 = phi ptr [ %41, %40 ], [ %16, %13 ]
  %19 = load ptr, ptr %0, align 8
  %20 = getelementptr inbounds nuw i8, ptr %19, i64 40
  %21 = load ptr, ptr %20, align 8
  %22 = load ptr, ptr %18, align 8
  %23 = getelementptr inbounds nuw i8, ptr %22, i64 40
  %24 = load ptr, ptr %23, align 8
  %25 = tail call i32 @xstrcmp(ptr noundef %21, ptr noundef %24) #10
  %.not55 = icmp eq i32 %25, 0
  br i1 %.not55, label %26, label %40

26:                                               ; preds = %.lr.ph
  %27 = load ptr, ptr %0, align 8
  %28 = getelementptr inbounds nuw i8, ptr %27, i64 60
  %29 = load i32, ptr %28, align 4
  %30 = load ptr, ptr %18, align 8
  %31 = getelementptr inbounds nuw i8, ptr %30, i64 60
  %32 = load i32, ptr %31, align 4
  %.not56 = icmp eq i32 %29, %32
  br i1 %.not56, label %40, label %33

33:                                               ; preds = %26
  %34 = getelementptr inbounds nuw i8, ptr %27, i64 40
  %35 = load ptr, ptr %34, align 8
  %36 = tail call i32 (ptr, ...) @error(ptr noundef nonnull @.str.55, ptr noundef %35, i32 noundef %29, i32 noundef %32) #10
  %37 = load ptr, ptr %18, align 8
  %38 = getelementptr inbounds nuw i8, ptr %37, i64 88
  store i16 0, ptr %38, align 8
  %39 = tail call i32 @list_delete_item(ptr noundef %15) #10
  br label %40

40:                                               ; preds = %33, %26, %.lr.ph
  %41 = tail call ptr @list_next(ptr noundef %15) #10
  %.not54 = icmp eq ptr %41, null
  %42 = icmp eq ptr %0, %41
  %or.cond = or i1 %.not54, %42
  br i1 %or.cond, label %._crit_edge, label %.lr.ph, !llvm.loop !15

._crit_edge:                                      ; preds = %40, %13
  %.not54.lcssa = phi i1 [ %.not5461, %13 ], [ %.not54, %40 ]
  tail call void @list_iterator_destroy(ptr noundef %15) #10
  br i1 %.not54.lcssa, label %43, label %101

43:                                               ; preds = %._crit_edge
  %44 = getelementptr inbounds nuw i8, ptr %0, i64 16
  %45 = tail call i32 @pthread_mutex_init(ptr noundef nonnull %44, ptr noundef null) #10
  %.not57 = icmp eq i32 %45, 0
  br i1 %.not57, label %48, label %46

46:                                               ; preds = %43
  %47 = tail call ptr @__errno_location() #12
  store i32 %45, ptr %47, align 4
  tail call void (ptr, ...) @fatal_abort(ptr noundef nonnull @.str.56, ptr noundef nonnull @__func__._add_registered_cluster) #11
  unreachable

48:                                               ; preds = %43
  %49 = tail call i32 @pthread_mutex_lock(ptr noundef nonnull %44) #10
  %.not58 = icmp eq i32 %49, 0
  br i1 %.not58, label %52, label %50

50:                                               ; preds = %48
  %51 = tail call ptr @__errno_location() #12
  store i32 %49, ptr %51, align 4
  tail call void (ptr, ...) @fatal_abort(ptr noundef nonnull @.str.7, ptr noundef nonnull @__func__._add_registered_cluster) #11
  unreachable

52:                                               ; preds = %48
  %53 = tail call ptr @slurm_xcalloc(i64 noundef 1, i64 noundef 176, i1 noundef zeroext true, i1 noundef zeroext false, ptr noundef nonnull @.str.8, i32 noundef 206, ptr noundef nonnull @__func__._add_registered_cluster) #10
  %54 = getelementptr inbounds nuw i8, ptr %0, i64 8
  store ptr %53, ptr %54, align 8
  %55 = load ptr, ptr %0, align 8
  %56 = getelementptr inbounds nuw i8, ptr %55, i64 40
  %57 = load ptr, ptr %56, align 8
  %58 = tail call ptr @xstrdup(ptr noundef %57) #10
  %59 = load ptr, ptr %54, align 8
  %60 = getelementptr inbounds nuw i8, ptr %59, i64 40
  store ptr %58, ptr %60, align 8
  %61 = load ptr, ptr %54, align 8
  %62 = getelementptr inbounds nuw i8, ptr %61, i64 60
  store i32 -2, ptr %62, align 4
  %63 = load ptr, ptr %54, align 8
  %64 = getelementptr inbounds nuw i8, ptr %63, i64 68
  store i32 5, ptr %64, align 4
  %65 = load ptr, ptr @slurmdbd_conf, align 8
  %66 = getelementptr inbounds nuw i8, ptr %65, i64 48
  %67 = load i16, ptr %66, align 8
  %68 = load ptr, ptr %54, align 8
  %69 = getelementptr inbounds nuw i8, ptr %68, i64 56
  store i16 %67, ptr %69, align 8
  %70 = load ptr, ptr %0, align 8
  %71 = getelementptr inbounds nuw i8, ptr %70, i64 80
  %72 = load ptr, ptr %71, align 8
  %73 = tail call ptr @xstrdup(ptr noundef %72) #10
  %74 = load ptr, ptr %54, align 8
  %75 = getelementptr inbounds nuw i8, ptr %74, i64 80
  store ptr %73, ptr %75, align 8
  %76 = load ptr, ptr %0, align 8
  %77 = getelementptr inbounds nuw i8, ptr %76, i64 88
  %78 = load i16, ptr %77, align 8
  %79 = load ptr, ptr %54, align 8
  %80 = getelementptr inbounds nuw i8, ptr %79, i64 88
  store i16 %78, ptr %80, align 8
  %81 = load ptr, ptr %0, align 8
  %82 = getelementptr inbounds nuw i8, ptr %81, i64 168
  %83 = load i16, ptr %82, align 8
  %84 = load ptr, ptr %54, align 8
  %85 = getelementptr inbounds nuw i8, ptr %84, i64 168
  store i16 %83, ptr %85, align 8
  %86 = load ptr, ptr %54, align 8
  %87 = getelementptr inbounds nuw i8, ptr %86, i64 96
  store ptr @shutdown_time, ptr %87, align 8
  %88 = load ptr, ptr %54, align 8
  %89 = getelementptr inbounds nuw i8, ptr %88, i64 112
  store i32 0, ptr %89, align 8
  %90 = load ptr, ptr %54, align 8
  %91 = getelementptr inbounds nuw i8, ptr %90, i64 72
  store i32 -1, ptr %91, align 8
  %92 = load ptr, ptr %54, align 8
  %93 = getelementptr inbounds nuw i8, ptr %92, i64 64
  %94 = load i16, ptr %93, align 8
  %95 = or i16 %94, 2
  store i16 %95, ptr %93, align 8
  %96 = tail call i32 @pthread_mutex_unlock(ptr noundef nonnull %44) #10
  %.not59 = icmp eq i32 %96, 0
  br i1 %.not59, label %99, label %97

97:                                               ; preds = %52
  %98 = tail call ptr @__errno_location() #12
  store i32 %96, ptr %98, align 4
  tail call void (ptr, ...) @fatal_abort(ptr noundef nonnull @.str.9, ptr noundef nonnull @__func__._add_registered_cluster) #11
  unreachable

99:                                               ; preds = %52
  %100 = load ptr, ptr @registered_clusters, align 8
  tail call void @list_append(ptr noundef %100, ptr noundef nonnull %0) #10
  br label %101

101:                                              ; preds = %._crit_edge, %99
  %102 = tail call i32 @pthread_mutex_unlock(ptr noundef nonnull @registered_lock) #10
  %.not60 = icmp eq i32 %102, 0
  br i1 %.not60, label %105, label %103

103:                                              ; preds = %101
  %104 = tail call ptr @__errno_location() #12
  store i32 %102, ptr %104, align 4
  tail call void (ptr, ...) @fatal_abort(ptr noundef nonnull @.str.9, ptr noundef nonnull @__func__._add_registered_cluster) #11
  unreachable

105:                                              ; preds = %101, %5
  ret void
}